target datalayout = "e-m:e-p270:32:32-p271:32:32-p272:64:64-i64:64-i128:128-f80:128-n8:16:32:64-S128"
target triple = "x86_64-pc-linux-gnu"

%struct.RestrictInfo = type { i32, ptr, i8, i8, i8, i8, i8, i8, i32, i32, i32, ptr, ptr, ptr, ptr, ptr, ptr, ptr, i32, ptr, %struct.QualCost, double, double, ptr, ptr, ptr, ptr, ptr, ptr, i8, i32, double, double, double, double, i32, i32 }
%struct.QualCost = type { double, double }
%struct.RelOptInfo = type { i32, i32, ptr, double, i8, i8, i8, ptr, ptr, ptr, ptr, ptr, ptr, ptr, ptr, ptr, ptr, i32, i32, i32, i16, i16, ptr, ptr, ptr, ptr, ptr, ptr, ptr, ptr, i32, double, double, ptr, ptr, ptr, i32, i32, i32, i32, i8, ptr, ptr, ptr, ptr, ptr, %struct.QualCost, i32, ptr, i8, i8, ptr, ptr, ptr, ptr, i32, ptr, i8, ptr, ptr, ptr, ptr, ptr, ptr }

; Function Attrs: nounwind uwtable
define dso_local zeroext i1 @join_clause_is_movable_to(ptr noundef %0, ptr noundef %1) #0 {
  %3 = alloca i1, align 1
  %4 = alloca ptr, align 8
  %5 = alloca ptr, align 8
  store ptr %0, ptr %4, align 8
  store ptr %1, ptr %5, align 8
  %6 = load ptr, ptr %5, align 8
  %7 = getelementptr inbounds nuw %struct.RelOptInfo, ptr %6, i32 0, i32 17
  %8 = load i32, ptr %7, align 8
  %9 = load ptr, ptr %4, align 8
  %10 = getelementptr inbounds nuw %struct.RestrictInfo, ptr %9, i32 0, i32 11
  %11 = load ptr, ptr %10, align 8
  %12 = call zeroext i1 @bms_is_member(i32 noundef %8, ptr noundef %11)
  br i1 %12, label %14, label %13

13:                                               ; preds = %2
  store i1 false, ptr %3, align 1
  br label %48

14:                                               ; preds = %2
  %15 = load ptr, ptr %5, align 8
  %16 = getelementptr inbounds nuw %struct.RelOptInfo, ptr %15, i32 0, i32 17
  %17 = load i32, ptr %16, align 8
  %18 = load ptr, ptr %4, align 8
  %19 = getelementptr inbounds nuw %struct.RestrictInfo, ptr %18, i32 0, i32 14
  %20 = load ptr, ptr %19, align 8
  %21 = call zeroext i1 @bms_is_member(i32 noundef %17, ptr noundef %20)
  br i1 %21, label %22, label %23

22:                                               ; preds = %14
  store i1 false, ptr %3, align 1
  br label %48

23:                                               ; preds = %14
  %24 = load ptr, ptr %4, align 8
  %25 = getelementptr inbounds nuw %struct.RestrictInfo, ptr %24, i32 0, i32 11
  %26 = load ptr, ptr %25, align 8
  %27 = load ptr, ptr %5, align 8
  %28 = getelementptr inbounds nuw %struct.RelOptInfo, ptr %27, i32 0, i32 25
  %29 = load ptr, ptr %28, align 8
  %30 = call zeroext i1 @bms_overlap(ptr noundef %26, ptr noundef %29)
  br i1 %30, label %31, label %32

31:                                               ; preds = %23
  store i1 false, ptr %3, align 1
  br label %48

32:                                               ; preds = %23
  %33 = load ptr, ptr %5, align 8
  %34 = getelementptr inbounds nuw %struct.RelOptInfo, ptr %33, i32 0, i32 27
  %35 = load ptr, ptr %34, align 8
  %36 = load ptr, ptr %4, align 8
  %37 = getelementptr inbounds nuw %struct.RestrictInfo, ptr %36, i32 0, i32 11
  %38 = load ptr, ptr %37, align 8
  %39 = call zeroext i1 @bms_overlap(ptr noundef %35, ptr noundef %38)
  br i1 %39, label %40, label %41

40:                                               ; preds = %32
  store i1 false, ptr %3, align 1
  br label %48

41:                                               ; preds = %32
  %42 = load ptr, ptr %4, align 8
  %43 = getelementptr inbounds nuw %struct.RestrictInfo, ptr %42, i32 0, i32 6
  %44 = load i8, ptr %43, align 4, !range !4, !noundef !5
  %45 = trunc i8 %44 to i1
  br i1 %45, label %46, label %47

46:                                               ; preds = %41
  store i1 false, ptr %3, align 1
  br label %48

47:                                               ; preds = %41
  store i1 true, ptr %3, align 1
  br label %48

48:                                               ; preds = %47, %46, %40, %31, %22, %13
  %49 = load i1, ptr %3, align 1
  ret i1 %49
}