; Function Attrs: nounwind uwtable
define dso_local zeroext i1 @join_clause_is_movable_to(ptr noundef readonly captures(none) %0, ptr noundef readonly captures(none) %1) local_unnamed_addr #0 {
  %3 = getelementptr inbounds nuw i8, ptr %1, i64 112
  %4 = load i32, ptr %3, align 8
  %5 = getelementptr inbounds nuw i8, ptr %0, i64 40
  %6 = load ptr, ptr %5, align 8
  %7 = tail call zeroext i1 @bms_is_member(i32 noundef %4, ptr noundef %6) #5
  br i1 %7, label %8, label %27

8:                                                ; preds = %2
  %9 = load i32, ptr %3, align 8
  %10 = getelementptr inbounds nuw i8, ptr %0, i64 64
  %11 = load ptr, ptr %10, align 8
  %12 = tail call zeroext i1 @bms_is_member(i32 noundef %9, ptr noundef %11) #5
  br i1 %12, label %27, label %13

13:                                               ; preds = %8
  %14 = load ptr, ptr %5, align 8
  %15 = getelementptr inbounds nuw i8, ptr %1, i64 152
  %16 = load ptr, ptr %15, align 8
  %17 = tail call zeroext i1 @bms_overlap(ptr noundef %14, ptr noundef %16) #5
  br i1 %17, label %27, label %18

18:                                               ; preds = %13
  %19 = getelementptr inbounds nuw i8, ptr %1, i64 168
  %20 = load ptr, ptr %19, align 8
  %21 = load ptr, ptr %5, align 8
  %22 = tail call zeroext i1 @bms_overlap(ptr noundef %20, ptr noundef %21) #5
  br i1 %22, label %27, label %23

23:                                               ; preds = %18
  %24 = getelementptr inbounds nuw i8, ptr %0, i64 20
  %25 = load i8, ptr %24, align 4, !range !4, !noundef !5
  %26 = trunc nuw i8 %25 to i1
  %not. = xor i1 %26, true
  br label %27

27:                                               ; preds = %23, %18, %13, %8, %2
  %.0 = phi i1 [ false, %2 ], [ false, %8 ], [ false, %13 ], [ false, %18 ], [ %not., %23 ]
  ret i1 %.0
}